target datalayout = "e-m:e-p270:32:32-p271:32:32-p272:64:64-i64:64-i128:128-f80:128-n8:16:32:64-S128"
target triple = "x86_64-unknown-linux-gnu"

%"class.icu_75::UObject" = type { ptr }
%"class.icu_75::DateFormat" = type { %"class.icu_75::Format.base", ptr, ptr, %"class.icu_75::EnumSet", i32 }
%"class.icu_75::Format.base" = type <{ %"class.icu_75::UObject", [157 x i8], [157 x i8] }>
%"class.icu_75::EnumSet" = type { i32 }

; Function Attrs: mustprogress uwtable
define noundef signext i8 @_ZNK6icu_7510DateFormat9isLenientEv(ptr noundef nonnull align 8 dereferenceable(352) %this) unnamed_addr #2 align 2 {
entry:
  %this.addr = alloca ptr, align 8
  %lenient = alloca i8, align 1
  %status = alloca i32, align 4
  store ptr %this, ptr %this.addr, align 8
  %this1 = load ptr, ptr %this.addr, align 8
  store i8 1, ptr %lenient, align 1
  %fCalendar = getelementptr inbounds %"class.icu_75::DateFormat", ptr %this1, i32 0, i32 1
  %0 = load ptr, ptr %fCalendar, align 8
  %cmp = icmp ne ptr %0, null
  br i1 %cmp, label %if.then, label %if.end

if.then:                                          ; preds = %entry
  %fCalendar2 = getelementptr inbounds %"class.icu_75::DateFormat", ptr %this1, i32 0, i32 1
  %1 = load ptr, ptr %fCalendar2, align 8
  %call = call noundef signext i8 @_ZNK6icu_758Calendar9isLenientEv(ptr noundef nonnull align 8 dereferenceable(618) %1)
  store i8 %call, ptr %lenient, align 1
  br label %if.end

if.end:                                           ; preds = %if.then, %entry
  store i32 0, ptr %status, align 4
  %2 = load i8, ptr %lenient, align 1
  %tobool = icmp ne i8 %2, 0
  br i1 %tobool, label %land.lhs.true, label %land.end

land.lhs.true:                                    ; preds = %if.end
  %vtable = load ptr, ptr %this1, align 8
  %vfn = getelementptr inbounds ptr, ptr %vtable, i64 28
  %3 = load ptr, ptr %vfn, align 8
  %call3 = call noundef signext i8 %3(ptr noundef nonnull align 8 dereferenceable(352) %this1, i32 noundef 0, ptr noundef nonnull align 4 dereferenceable(4) %status)
  %tobool4 = icmp ne i8 %call3, 0
  br i1 %tobool4, label %land.rhs, label %land.end

land.rhs:                                         ; preds = %land.lhs.true
  %vtable5 = load ptr, ptr %this1, align 8
  %vfn6 = getelementptr inbounds ptr, ptr %vtable5, i64 28
  %4 = load ptr, ptr %vfn6, align 8
  %call7 = call noundef signext i8 %4(ptr noundef nonnull align 8 dereferenceable(352) %this1, i32 noundef 1, ptr noundef nonnull align 4 dereferenceable(4) %status)
  %tobool8 = icmp ne i8 %call7, 0
  br label %land.end

land.end:                                         ; preds = %land.rhs, %land.lhs.true, %if.end
  %5 = phi i1 [ false, %land.lhs.true ], [ false, %if.end ], [ %tobool8, %land.rhs ]
  %conv = zext i1 %5 to i8
  ret i8 %conv
}