; Function Attrs: mustprogress uwtable
define noundef signext i8 @_ZNK6icu_7510DateFormat9isLenientEv(ptr noundef nonnull align 8 dereferenceable(352) %this) unnamed_addr #3 align 2 {
entry:
  %status = alloca i32, align 4
  %fCalendar = getelementptr inbounds i8, ptr %this, i64 328
  %0 = load ptr, ptr %fCalendar, align 8
  %cmp.not = icmp eq ptr %0, null
  br i1 %cmp.not, label %land.lhs.true.critedge, label %if.then

if.then:                                          ; preds = %entry
  %call = tail call noundef signext i8 @_ZNK6icu_758Calendar9isLenientEv(ptr noundef nonnull align 8 dereferenceable(618) %0)
  %1 = icmp eq i8 %call, 0
  store i32 0, ptr %status, align 4
  br i1 %1, label %land.end, label %land.lhs.true

land.lhs.true.critedge:                           ; preds = %entry
  store i32 0, ptr %status, align 4
  br label %land.lhs.true

land.lhs.true:                                    ; preds = %land.lhs.true.critedge, %if.then
  %vtable = load ptr, ptr %this, align 8
  %vfn = getelementptr inbounds i8, ptr %vtable, i64 224
  %2 = load ptr, ptr %vfn, align 8
  %call3 = call noundef signext i8 %2(ptr noundef nonnull align 8 dereferenceable(352) %this, i32 noundef 0, ptr noundef nonnull align 4 dereferenceable(4) %status)
  %tobool4.not = icmp eq i8 %call3, 0
  br i1 %tobool4.not, label %land.end, label %land.rhs

land.rhs:                                         ; preds = %land.lhs.true
  %vtable5 = load ptr, ptr %this, align 8
  %vfn6 = getelementptr inbounds i8, ptr %vtable5, i64 224
  %3 = load ptr, ptr %vfn6, align 8
  %call7 = call noundef signext i8 %3(ptr noundef nonnull align 8 dereferenceable(352) %this, i32 noundef 1, ptr noundef nonnull align 4 dereferenceable(4) %status)
  %tobool8 = icmp ne i8 %call7, 0
  %4 = zext i1 %tobool8 to i8
  br label %land.end

land.end:                                         ; preds = %land.rhs, %land.lhs.true, %if.then
  %conv = phi i8 [ 0, %land.lhs.true ], [ 0, %if.then ], [ %4, %land.rhs ]
  ret i8 %conv
}